(dp0
S'Haryana'
p1
(dp2
S'Yamuna Nagar'
p3
(lp4
sS'Jind'
p5
(lp6
S'Narwana'
p7
aS'Safidon'
p8
asS'Gurgaon'
p9
(lp10
S'Gurgaon'
p11
aS'Nuh'
p12
aS'Pataudi'
p13
asS'Sirsa'
p14
(lp15
S'Sirsa'
p16
asS'Kaithal'
p17
(lp18
S'Kaithal'
p19
asS'Jhajjar'
p20
(lp21
S'Jhajjar'
p22
aS'Kosli'
p23
asS'Panipat'
p24
(lp25
sS'Faridabad'
p26
(lp27
S'Hathin'
p28
aS'Palwal'
p29
asS'Mahendragarh'
p30
(lp31
S'Narnaul'
p32
asS'Karnal'
p33
(lp34
S'Karnal'
p35
asS'Ambala'
p36
(lp37
sS'Bhiwani'
p38
(lp39
S'Bhiwani'
p40
aS'Dadri'
p41
aS'Loharu'
p42
aS'Siwani'
p43
asS'Hisar'
p44
(lp45
S'Hisar'
p46
asS'Fatehabad'
p47
(lp48
S'Ratia'
p49
aS'Tohana'
p50
asS'Rewari'
p51
(lp52
S'Rewari'
p53
asS'Kurukshetra'
p54
(lp55
S'Thanesar'
p56
asS'Rohtak'
p57
(lp58
S'Rohtak'
p59
asS'Panchkula'
p60
(lp61
sS'Sonepat'
p62
(lp63
S'Gohana'
p64
aS'Sonipat'
p65
assS'Punjab'
p66
(dp67
S'Sangrur'
p68
(lp69
S'Maler Kotla'
p70
aS'Sangrur'
p71
aS'Sunam'
p72
asS'Ludhiana'
p73
(lp74
S'Khanna'
p75
aS'Ludhiana'
p76
aS'Samrala'
p77
asS'Rupnagar'
p78
(lp79
S'Kharar'
p80
aS'Rupnagar'
p81
asS'Faridkot'
p82
(lp83
sS'Fatehgarh Sahib'
p84
(lp85
sS'Mansa'
p86
(lp87
sS'Gurdaspur'
p88
(lp89
S'Gurdaspur'
p90
aS'Pathankot'
p91
asS'Amritsar'
p92
(lp93
S'Patti'
p94
aS'Tarn Taran'
p95
asS'Jalandhar'
p96
(lp97
S'Nakodar'
p98
aS'Phillaur'
p99
asS'Kapurthala'
p100
(lp101
S'Phagwara'
p102
aS'Sultanpur Lodhi'
p103
asS'Muktsar'
p104
(lp105
sS'Moga'
p106
(lp107
sS'Hoshiarpur'
p108
(lp109
S'Garhshankar'
p110
aS'Hoshiarpur'
p111
asS'Bathinda'
p112
(lp113
S'Rampura Phul'
p114
aS'Talwandi Sabo'
p115
asS'Firozpur'
p116
(lp117
S'Fazilka'
p118
aS'Firozpur'
p119
aS'Zira'
p120
asS'Nawan Shehar'
p121
(lp122
S'Nawashahr'
p123
asS'Patiala'
p124
(lp125
S'Patiala'
p126
aS'Rajpura'
p127
aS'Samana'
p128
assS'Goa'
p129
(dp130
S'South Goa'
p131
(lp132
S'Madgaon'
p133
aS'Quepem'
p134
aS'Sambaji'
p135
aS'Sanguem'
p136
asS'North Goa'
p137
(lp138
S'Panaji'
p139
aS'Pernem'
p140
aS'Ponda'
p141
aS'Valpoy'
p142
assS'Chhattisgarh'
p143
(dp144
S'Durg'
p145
(lp146
S'Bemetara'
p147
aS'Durg'
p148
asS'Kanker'
p149
(lp150
S'Kanker'
p151
aS'Pakhanjur'
p152
asS'Dantewada'
p153
(lp154
S'Dantewara'
p155
aS'Konta'
p156
asS'Mahasamund'
p157
(lp158
S'Seraipali'
p159
asS'Surguja'
p160
(lp161
S'Kusmi'
p162
aS'Lundra'
p163
aS'Partabpur'
p164
aS'Ramanuj Ganj'
p165
aS'Sitapur'
p166
aS'Surajpur'
p167
asS'Dhamtari'
p168
(lp169
sS'Bastar'
p170
(lp171
S'Kondagaon'
p172
aS'Narainpur'
p173
asS'Raipur'
p174
(lp175
S'Bhatapara'
p176
aS'Bilaigarh'
p177
aS'Bindra Nawagarh'
p178
aS'Kasdol'
p179
aS'Raipur'
p180
aS'Rajim'
p181
aS'Simga'
p182
asS'Jashpur'
p183
(lp184
S'Jashpurnagar'
p185
aS'Pathalgaon'
p186
asS'Raigarh'
p187
(lp188
S'Gharghoda'
p189
aS'Raigarh'
p190
aS'Sarangarh'
p191
asS'Bilaspur'
p192
(lp193
S'Kota'
p194
aS'Mungeli'
p195
aS'Pendra Road'
p196
aS'Takhatpur'
p197
asS'Koriya'
p198
(lp199
S'Bharatpur'
p200
aS'Manendragarh'
p201
asS'Janjgir-Champa'
p202
(lp203
S'Janjgir'
p204
aS'Sakti'
p205
asS'Korba'
p206
(lp207
S'Korba'
p208
asS'Raj Nandgaon'
p209
(lp210
S'Dongargarh'
p211
aS'Khairagarh'
p212
aS'Raj Nandgaon'
p213
asS'Kawardha'
p214
(lp215
ssS'Kerala'
p216
(dp217
S'Ernakulam'
p218
(lp219
S'Cochin'
p220
aS'Ernakulam'
p221
aS'Kotamangalam'
p222
aS'Muvattupula'
p223
aS'Parur'
p224
aS'Perumbavur'
p225
asS'Palakkad'
p226
(lp227
S'Chittur'
p228
aS'Mannarkkad'
p229
aS'Ottappalam'
p230
aS'Palghat'
p231
asS'Thiruvananthapuram'
p232
(lp233
S'Nedumangad'
p234
aS'Neyyattinkara'
p235
aS'Trivandrum'
p236
asS'Malappuram'
p237
(lp238
S'Perintalmanna'
p239
aS'Ponnani'
p240
aS'Tirur'
p241
asS'Kozhikode'
p242
(lp243
S'Mahe'
p244
aS'Quilandi'
p245
asS'Alappuzha'
p246
(lp247
S'Haripad'
p248
aS'Mankombu'
p249
aS'Mavelikara'
p250
aS'Shertallai'
p251
asS'Wayanad'
p252
(lp253
S'Sultans Battery'
p254
aS'Vayittiri'
p255
asS'Kottayam'
p256
(lp257
S'Kanjirapalli'
p258
aS'Kottayam'
p259
aS'Pala (Lalam)'
p260
aS'Vaikam'
p261
asS'Idukki'
p262
(lp263
S'Pirmed'
p264
aS'Todupulai'
p265
aS'Udumbanchola'
p266
asS'Kollam'
p267
(lp268
S'Kottarakara'
p269
aS'Kunnattur'
p270
aS'Punalur'
p271
aS'Quilon'
p272
asS'Thrissur'
p273
(lp274
S'Irinjalakuda'
p275
aS'Kodungallur'
p276
aS'Trichur'
p277
aS'Vadakkancheri'
p278
asS'Pattanamtitta'
p279
(lp280
S'Mallapalli'
p281
aS'Rani'
p282
aS'Tiruvalla'
p283
asS'Kasaragod'
p284
(lp285
S'Kasaragod'
p286
asS'Kannur'
p287
(lp288
S'Talipparamba'
p289
aS'Tellicherry'
p290
assS'State'
p291
(dp292
sS'Daman and Diu'
p293
(dp294
S'Junagadh'
p295
(lp296
S'Kodinar'
p297
assS'Bihar'
p298
(dp299
S'Pashchim Champaran'
p300
(lp301
sS'Purba Champaran'
p302
(lp303
S'Motihari'
p304
asS'Saran'
p305
(lp306
sS'Samastipur'
p307
(lp308
S'Rusera'
p309
aS'Samastipur'
p310
asS'Munger'
p311
(lp312
sS'Lakhisarai'
p313
(lp314
sS'Gopalganj'
p315
(lp316
sS'Patna'
p317
(lp318
S'Danapur'
p319
aS'Masaurhi'
p320
asS'Rohtas'
p321
(lp322
sS'Madhepura'
p323
(lp324
S'Madhepura'
p325
asS'Muzaffarpur'
p326
(lp327
sS'Sheohar'
p328
(lp329
sS'Buxar'
p330
(lp331
sS'Bhabua'
p332
(lp333
sS'Aurangabad'
p334
(lp335
sS'Katihar'
p336
(lp337
sS'Sheikhpura'
p338
(lp339
sS'Gaya'
p340
(lp341
sS'Nawada'
p342
(lp343
sS'Purnia'
p344
(lp345
sS'Madhubani'
p346
(lp347
S'Jhanjharpur'
p348
aS'Madhubani'
p349
asS'Saharsa'
p350
(lp351
sS'Begusarai'
p352
(lp353
sS'Supaul'
p354
(lp355
S'Supaul'
p356
asS'Banka'
p357
(lp358
sS'Sitamarhi'
p359
(lp360
sS'Darbhanga'
p361
(lp362
S'Darbhanga'
p363
asS'Nalanda'
p364
(lp365
S'Hilsa'
p366
asS'Jehanabad'
p367
(lp368
sS'Khagaria'
p369
(lp370
sS'Jamui'
p371
(lp372
sS'Vaishali'
p373
(lp374
sS'Bhojpur'
p375
(lp376
sS'Bhagalpur'
p377
(lp378
S'Naugachhia'
p379
asS'Kishanganj'
p380
(lp381
sS'Siwan'
p382
(lp383
ssS'Tamil Nadu'
p384
(dp385
S'Ramanathapuram'
p386
(lp387
S'Mudukulattur'
p388
aS'Paramakkudi'
p389
aS'Ramanathapuram'
p390
aS'Rameswaram'
p391
aS'Tiruvadanai'
p392
asS'Karur'
p393
(lp394
S'Kulittalai'
p395
asS'Coimbatore'
p396
(lp397
S'Coimbatore'
p398
aS'Mettuppalaiyam'
p399
aS'Pollachi'
p400
aS'Tiruppur'
p401
aS'Udumalaippettai'
p402
asS'Chennai'
p403
(lp404
S'Fort Tondiarpet'
p405
aS'Mambalam Gundy'
p406
aS'Mylapore Tiruvallikk'
p407
aS'Perambur Purasavakam'
p408
asS'Erode'
p409
(lp410
S'Dharapuram'
p411
aS'Erode'
p412
aS'Gopichettipalaiyam'
p413
aS'Perundurai'
p414
aS'Satyamangalam'
p415
asS'Ariyalur'
p416
(lp417
sS'Tiruvannamalai'
p418
(lp419
S'Chengam'
p420
aS'Polur'
p421
aS'Tiruvannamalai'
p422
aS'Tiruvettipuram'
p423
aS'Vandavasi'
p424
asS'Nagapattinam'
p425
(lp426
S'Nagappattinam'
p427
aS'Sirkazhi'
p428
aS'Tarangambadi'
p429
aS'Tirutturaippundi'
p430
asS'Namakkal'
p431
(lp432
S'Rasipuram'
p433
aS'Tiruchengodu'
p434
asS'Theni'
p435
(lp436
S'Uttamapalaiyam'
p437
asS'Tiruchchirappalli'
p438
(lp439
S'Manapparai'
p440
aS'Musiri'
p441
aS'Tiruchchirappalli'
p442
aS'Turaiyur'
p443
asS'Dharmapuri'
p444
(lp445
S'Dharmapuri'
p446
aS'Harur'
p447
aS'Hosur'
p448
aS'Krishnagiri'
p449
aS'Palakkodu'
p450
aS'Pennagaram'
p451
aS'Uttangarai'
p452
asS'Kanniyakumari'
p453
(lp454
S'Kuzhittura'
p455
aS'Nagercoil'
p456
aS'Takkalai'
p457
asS'Perambalur'
p458
(lp459
sS'Cuddalore'
p460
(lp461
S'Cuddalore'
p462
aS'Vriddhachalam'
p463
asS'Vellore'
p464
(lp465
S'Arcot'
p466
aS'Gudiyattam'
p467
aS'Tiruppattur'
p468
aS'Vaniyambadi'
p469
aS'Vellore'
p470
aS'Walajapet'
p471
asS'Kancheepuram'
p472
(lp473
S'Cheyyur'
p474
aS'Kanchipuram'
p475
aS'Madurantakam'
p476
aS'Sriperumbudur'
p477
aS'Uttiramerur'
p478
asS'Thiruvallur'
p479
(lp480
S'Pallippattu'
p481
aS'Ponneri'
p482
aS'Saidapet'
p483
aS'Tiruttani'
p484
aS'Tiruvallur'
p485
aS'Uttukkottai'
p486
asS'Nilgiris'
p487
(lp488
S'Gudalur'
p489
aS'Kotagiri'
p490
aS'Udagamandalam'
p491
asS'Dindigul'
p492
(lp493
S'Kodaikkanal'
p494
aS'Nattam'
p495
aS'Nilakkottai'
p496
aS'Palani'
p497
aS'Vedasandur'
p498
asS'Villupuram'
p499
(lp500
S'Kallakkurichchi'
p501
aS'Tindivanam'
p502
aS'Tirukkoyilur'
p503
aS'Viluppuram'
p504
asS'Madurai'
p505
(lp506
S'Melur'
p507
aS'Tirumangalam'
p508
aS'Usilampatti'
p509
aS'Vadippatti'
p510
asS'Sivaganga'
p511
(lp512
S'Ilaiyankudi'
p513
aS'Karaikkudi'
p514
aS'Manamadurai'
p515
aS'Sivaganga'
p516
aS'Tiruppattur'
p517
asS'Pudukkottai'
p518
(lp519
S'Arantangi'
p520
aS'Kulattur'
p521
aS'Pudukkottai'
p522
aS'Tirumayam'
p523
asS'Thiruvarur'
p524
(lp525
S'Nannilam'
p526
aS'Thiruvarur'
p527
asS'Thoothukudi'
p528
(lp529
S'Ottapidaram'
p530
aS'Sattankulam'
p531
aS'Srivaikuntam'
p532
aS'Tiruchchendur'
p533
aS'Tuticorin'
p534
aS'Vilattikulam'
p535
asS'Virudhunagar'
p536
(lp537
S'Rajapalaiyam'
p538
aS'Sattur'
p539
aS'Srivilliputtur'
p540
aS'Tiruchuli'
p541
aS'Virudunagar'
p542
asS'Salem'
p543
(lp544
S'Mettur'
p545
aS'Omalur'
p546
aS'Salem'
p547
aS'Sankari'
p548
asS'Thanjavur'
p549
(lp550
S'Orattanadu'
p551
aS'Papanasam'
p552
aS'Pattukkottai'
p553
aS'Peravurani'
p554
aS'Thanjavur'
p555
aS'Tiruvidaimarudur'
p556
asS'Tirunelveli Kattabo'
p557
(lp558
S'Nanguneri'
p559
aS'Palayankottai'
p560
aS'Radhapuram'
p561
aS'Sankarankovil'
p562
aS'Sengottai'
p563
aS'Sivagiri'
p564
aS'Tenkasi'
p565
aS'Tirunelveli'
p566
assS'Chandigarh'
p567
(dp568
sS'Dadra and Nagar Haveli'
p569
(dp570
sS'Jharkhand'
p571
(dp572
S'Pakur'
p573
(lp574
sS'Sahibganj'
p575
(lp576
sS'Latehar'
p577
(lp578
sS'Chatra'
p579
(lp580
sS'Gumla'
p581
(lp582
sS'Godda'
p583
(lp584
sS'Ranchi'
p585
(lp586
S'Ranchi'
p587
asS'Bokaro'
p588
(lp589
sS'Deoghar'
p590
(lp591
sS'Giridih'
p592
(lp593
sS'Dumka'
p594
(lp595
sS'Lohardaga'
p596
(lp597
sS'Pashchim Singhbhum'
p598
(lp599
S'Chakradharpur'
p600
asS'Garhwa'
p601
(lp602
sS'Koderma'
p603
(lp604
sS'Purba Singhbhum'
p605
(lp606
sS'Palamu'
p607
(lp608
sS'Jamtara'
p609
(lp610
sS'Hazaribag'
p611
(lp612
sS'Dhanbad'
p613
(lp614
S'Dhanbad'
p615
asS'Simdega'
p616
(lp617
ssS'Meghalaya'
p618
(dp619
S'West Garo Hills'
p620
(lp621
sS'Jaintia Hills'
p622
(lp623
sS'East Khasi Hills'
p624
(lp625
sS'South Garo Hills'
p626
(lp627
sS'Ri-Bhoi'
p628
(lp629
sS'West Khasi Hills'
p630
(lp631
ssS'Delhi'
p632
(dp633
sS'Orissa'
p634
(dp635
S'Khordha'
p636
(lp637
S'Khordha'
p638
asS'Deogarh'
p639
(lp640
sS'Bhadrak'
p641
(lp642
sS'Koraput'
p643
(lp644
S'Koraput'
p645
asS'Sonepur'
p646
(lp647
sS'Ganjam'
p648
(lp649
S'Chatrapur'
p650
asS'Puri'
p651
(lp652
sS'Dhenkanal'
p653
(lp654
S'Hindola'
p655
aS'Kamakhyanagar'
p656
asS'Gajapati'
p657
(lp658
sS'Kendrapara'
p659
(lp660
sS'Baragarh'
p661
(lp662
S'Padmapur'
p663
asS'Rayagada'
p664
(lp665
S'Rayagarha'
p666
asS'Mayurbhanj'
p667
(lp668
S'Panchpir'
p669
aS'Rai'
p670
aS'Udala'
p671
asS'Malkangiri'
p672
(lp673
sS'Boudh'
p674
(lp675
sS'Jajpur'
p676
(lp677
sS'Cuttack'
p678
(lp679
S'Banki'
p680
aS'Cuttack'
p681
asS'Angul'
p682
(lp683
S'Pala Laharha'
p684
aS'Talcher'
p685
asS'Nabarangpur'
p686
(lp687
sS'Nuapada'
p688
(lp689
sS'Keonjhar'
p690
(lp691
S'Champua'
p692
aS'Kendujhar'
p693
asS'Bolangir'
p694
(lp695
S'Patnagarh'
p696
aS'Titlagarh'
p697
asS'Nayagarh'
p698
(lp699
sS'Baleshwar'
p700
(lp701
S'Nilagiri'
p702
asS'Jharsuguda'
p703
(lp704
sS'Kalahandi'
p705
(lp706
S'Dharamgarh'
p707
asS'Jagatsinghpur'
p708
(lp709
sS'Sambalpur'
p710
(lp711
S'Redhakhol'
p712
aS'Sambalpur'
p713
asS'Kandhamal'
p714
(lp715
S'Phulbani'
p716
asS'Sundargarh'
p717
(lp718
S'Panposh'
p719
aS'Sundargarh'
p720
assS'Assam'
p721
(dp722
S'Nalbari'
p723
(lp724
sS'Dhemaji'
p725
(lp726
sS'Sibsagar'
p727
(lp728
sS'Nagaon'
p729
(lp730
sS'Sonitpur'
p731
(lp732
sS'Marigaon'
p733
(lp734
sS'Kokrajhar'
p735
(lp736
sS'Dibrugarh'
p737
(lp738
sS'North Cachar Hills'
p739
(lp740
sS'Kamrup'
p741
(lp742
sS'Jorhat'
p743
(lp744
sS'Darrang'
p745
(lp746
sS'Tinsukia'
p747
(lp748
S'Tinsukia'
p749
asS'Golaghat'
p750
(lp751
sS'Karbi Anglong'
p752
(lp753
sS'Karimganj'
p754
(lp755
sS'Hailakandi'
p756
(lp757
sS'Dhuburi'
p758
(lp759
sS'Goalpara'
p760
(lp761
sS'Cachar'
p762
(lp763
sS'Bongaigaon'
p764
(lp765
sS'Lakhimpur'
p766
(lp767
ssS'Madhya Pradesh'
p768
(dp769
S'Burhanpur'
p770
(lp771
sS'Sheopur'
p772
(lp773
S'Sheopur'
p774
asS'Hoshangabad'
p775
(lp776
S'Hoshangabad'
p777
aS'Itarsi'
p778
aS'Piparia'
p779
aS'Seonimalwa'
p780
aS'Sohagpur'
p781
asS'Sehore'
p782
(lp783
S'Budhni'
p784
aS'Ichhawar'
p785
aS'Nasrullahganj'
p786
aS'Sehore'
p787
asS'Betul'
p788
(lp789
S'Bhainsdehi'
p790
aS'Multai'
p791
asS'Sidhi'
p792
(lp793
S'Sidhi'
p794
aS'Singrauli'
p795
asS'Dhar'
p796
(lp797
S'Dhar'
p798
aS'Kukshi'
p799
aS'Manawar'
p800
aS'Sardarpur'
p801
asS'Rewa'
p802
(lp803
S'Rewa'
p804
aS'Sirmaur'
p805
aS'Teonthar'
p806
asS'Umaria'
p807
(lp808
sS'Mandsaur'
p809
(lp810
S'Garot'
p811
aS'Malhargarh'
p812
aS'Mandsaur'
p813
aS'Sitamau'
p814
asS'Damoh'
p815
(lp816
S'Hatta'
p817
asS'Guna'
p818
(lp819
S'Guna'
p820
aS'Raghogarh'
p821
asS'Rajgarh'
p822
(lp823
S'Khilchipur'
p824
aS'Narsinghgarh'
p825
aS'Rajgarh'
p826
aS'Sarangpur'
p827
asS'Satna'
p828
(lp829
S'Maihar'
p830
aS'Nagod'
p831
aS'Satna'
p832
asS'Vidisha'
p833
(lp834
S'Korwai'
p835
aS'Leteri'
p836
aS'Sironj'
p837
aS'Vidisha'
p838
asS'Jabalpur'
p839
(lp840
S'Patan'
p841
asS'Shivpuri'
p842
(lp843
S'Kolaras'
p844
aS'Pichor'
p845
aS'Pohri'
p846
aS'Shivpuri'
p847
asS'Seoni'
p848
(lp849
S'Seoni'
p850
asS'West Nimar'
p851
(lp852
S'Bhagwanpur'
p853
aS'Bhikangaon'
p854
aS'Jhirnia'
p855
aS'Kasrawad'
p856
aS'Khargon'
p857
aS'Maheshwar'
p858
aS'Segaon'
p859
asS'Mandla'
p860
(lp861
S'Niwas'
p862
asS'Bhind'
p863
(lp864
S'Gohad'
p865
aS'Lahar'
p866
aS'Mahgawan'
p867
asS'Bhopal'
p868
(lp869
S'Bhopal'
p870
asS'Neemuch'
p871
(lp872
S'Manasa'
p873
aS'Nimach'
p874
asS'Dewas'
p875
(lp876
S'Dewas'
p877
aS'Kannod'
p878
aS'Khategaon'
p879
aS'Sonkach'
p880
asS'Katni'
p881
(lp882
S'Sihora'
p883
asS'Jhabua'
p884
(lp885
S'Jhabua'
p886
aS'Jobat'
p887
aS'Petlawad'
p888
aS'Thandla'
p889
asS'Tikamgarh'
p890
(lp891
S'Nivari'
p892
aS'Tikamgarh'
p893
asS'Gwalior'
p894
(lp895
S'Gwalior'
p896
asS'Panna'
p897
(lp898
S'Panna'
p899
aS'Pawai'
p900
asS'Shajapur'
p901
(lp902
S'Shajapur'
p903
aS'Shujalpur'
p904
aS'Susner'
p905
asS'Shahdol'
p906
(lp907
S'Jaisinghnagar'
p908
aS'Rajendragram'
p909
aS'Shahdol'
p910
asS'East Nimar'
p911
(lp912
S'Khandwa'
p913
asS'Dindori'
p914
(lp915
sS'Indore'
p916
(lp917
S'Indore'
p918
aS'Mhow'
p919
aS'Sanwer'
p920
asS'Barwani'
p921
(lp922
S'Pansemal'
p923
aS'Rajpur'
p924
aS'Sendhwa'
p925
asS'Chhatarpur'
p926
(lp927
S'Chhatarpur'
p928
aS'Lauri'
p929
asS'Chhindwara'
p930
(lp931
S'Chhindwara'
p932
aS'Parasia'
p933
aS'Sausar'
p934
asS'Balaghat'
p935
(lp936
S'Balaghat'
p937
aS'Lanji'
p938
aS'Waraseoni'
p939
asS'Narsinghpur'
p940
(lp941
S'Narsimhapur'
p942
asS'Raisen'
p943
(lp944
S'Begamganj'
p945
aS'Gairatganj'
p946
aS'Goharganj'
p947
aS'Raisen'
p948
aS'Silvani'
p949
aS'Udaipura'
p950
asS'Harda'
p951
(lp952
sS'Ashoknagar'
p953
(lp954
S'Chanderi'
p955
aS'Mungaoli'
p956
asS'Ujjain'
p957
(lp958
S'Khachrod'
p959
aS'Mehidpur'
p960
aS'Tarana'
p961
aS'Ujjain'
p962
asS'Datia'
p963
(lp964
S'Datia'
p965
aS'Seondha'
p966
asS'Morena'
p967
(lp968
S'Jora'
p969
aS'Morena'
p970
aS'Sabalgarh'
p971
asS'Sagar'
p972
(lp973
S'Khurai'
p974
aS'Rehli'
p975
aS'Sagar'
p976
asS'Ratlam'
p977
(lp978
S'Jaora'
p979
aS'Ratlam'
p980
aS'Sailana'
p981
assS'Lakshadweep'
p982
(dp983
S'Kavaratti'
p984
(lp985
S'Kavaratti'
p986
aS'Minicoy Island'
p987
assS'Manipur'
p988
(dp989
S'Tamenglong'
p990
(lp991
S'Tamei'
p992
aS'Tamenglong'
p993
aS'Tousem'
p994
asS'Senapati'
p995
(lp996
S'Karong'
p997
aS'Saikul'
p998
asS'Thoubal'
p999
(lp1000
S'Thoubal'
p1001
asS'Ukhrul'
p1002
(lp1003
S'Kamjong'
p1004
aS'Kasom Khullen'
p1005
aS'Phungyar'
p1006
aS'Ukhrul'
p1007
asS'Chandel'
p1008
(lp1009
S'Chandel'
p1010
aS'Tengnoupal'
p1011
asS'West Imphal'
p1012
(lp1013
sS'Bishnupur'
p1014
(lp1015
sS'Churachandpur'
p1016
(lp1017
S'Henglep'
p1018
aS'Parbung'
p1019
aS'Thanlon'
p1020
aS'Thinghat'
p1021
assS'Rajasthan'
p1022
(dp1023
S'Ganganagar'
p1024
(lp1025
S'Ganganagar'
p1026
aS'Karanpur'
p1027
aS'Padampur'
p1028
aS'Raisinghnagar'
p1029
aS'Sadulshahr'
p1030
aS'Sri Vijainagar'
p1031
aS'Suratgarh'
p1032
asS'Dausa'
p1033
(lp1034
S'Dausa'
p1035
aS'Lalsot'
p1036
aS'Mahwah'
p1037
aS'Sakrai'
p1038
asS'Bhilwara'
p1039
(lp1040
S'Banera'
p1041
aS'Bhilwara'
p1042
aS'Gangapur'
p1043
aS'Gulabpura'
p1044
aS'Jahazpur'
p1045
aS'Kotri'
p1046
aS'Mandal'
p1047
aS'Mandalgarh'
p1048
aS'Raipur'
p1049
aS'Shahpura'
p1050
asS'Barmer'
p1051
(lp1052
S'Chauhtan'
p1053
aS'Gurha Malini'
p1054
aS'Pachpadra'
p1055
aS'Shiv'
p1056
aS'Siwana'
p1057
asS'Jaisalmer'
p1058
(lp1059
S'Pokaran'
p1060
asS'Sirohi'
p1061
(lp1062
S'Pindwara'
p1063
aS'Revdar'
p1064
aS'Shivganj'
p1065
aS'Sirohi'
p1066
asS'Dungarpur'
p1067
(lp1068
S'Dungarpur'
p1069
aS'Sagwara'
p1070
aS'Simalwara'
p1071
asS'Udaipur'
p1072
(lp1073
S'Kherwara'
p1074
aS'Kotra'
p1075
aS'Lasadia'
p1076
aS'Phalsiya'
p1077
aS'Salumbar'
p1078
aS'Sarada'
p1079
aS'Udaipur'
p1080
aS'Vallabhnagar'
p1081
asS'Alwar'
p1082
(lp1083
S'Bahror'
p1084
aS'Bansur'
p1085
aS'Kishangarh Bas'
p1086
aS'Lachhmangarh'
p1087
aS'Mandawar'
p1088
aS'Rajgarh'
p1089
aS'Ramgarh'
p1090
aS'Thana Gazi'
p1091
aS'Tijara'
p1092
asS'Rajsamand'
p1093
(lp1094
S'Bhim'
p1095
aS'Devgarh'
p1096
aS'Kumbhalgarh'
p1097
aS'Nathdwara'
p1098
aS'Rajsamand'
p1099
aS'Relmagra'
p1100
asS'Pali'
p1101
(lp1102
S'Desuri'
p1103
aS'Jaitaran'
p1104
aS'Kharchi'
p1105
aS'Pali'
p1106
aS'Raipur'
p1107
aS'Sojat'
p1108
asS'Jalor'
p1109
(lp1110
S'Bhinmal'
p1111
aS'Jalor'
p1112
aS'Raniwara'
p1113
aS'Sanchor'
p1114
asS'Banswara'
p1115
(lp1116
S'Garhi'
p1117
aS'Ghatol'
p1118
aS'Kalinjara'
p1119
asS'Sikar'
p1120
(lp1121
S'Lachhmangarh'
p1122
aS'Nim ka Thana'
p1123
aS'Shri Madhopur'
p1124
aS'Sikar'
p1125
asS'Jaipur'
p1126
(lp1127
S'Bassi'
p1128
aS'Chaksu'
p1129
aS'Chomu'
p1130
aS'Dudu'
p1131
aS'Jaipur'
p1132
aS'Jamwa Ramgarh'
p1133
aS'Kot Putli'
p1134
aS'Phagi'
p1135
aS'Sambhar'
p1136
aS'Sanganer'
p1137
aS'Viratnagar'
p1138
asS'Bundi'
p1139
(lp1140
S'Hindoli'
p1141
aS'Keshorai Patan'
p1142
aS'Naenwa'
p1143
asS'Nagaur'
p1144
(lp1145
S'Didwana'
p1146
aS'Jayal'
p1147
aS'Ladnun'
p1148
aS'Merta'
p1149
aS'Nagaur'
p1150
aS'Nawa'
p1151
aS'Parvatsar'
p1152
asS'Baran'
p1153
(lp1154
S'Baran'
p1155
aS'Chhabra'
p1156
aS'Chhipa Barod'
p1157
aS'Kishanganj'
p1158
aS'Mangrol'
p1159
aS'Shahbad'
p1160
asS'Karauli'
p1161
(lp1162
S'Karauli'
p1163
aS'Nandauti'
p1164
aS'Sapotra'
p1165
aS'Toda Bhim'
p1166
asS'Kota'
p1167
(lp1168
S'Kota'
p1169
aS'Pipalda Kalan'
p1170
aS'Ramganj Mandi'
p1171
aS'Sangod'
p1172
asS'Chittaurgarh'
p1173
(lp1174
S'Bari Sadri'
p1175
aS'Begun'
p1176
aS'Bhadesar'
p1177
aS'Chhoti Sadri'
p1178
aS'Gangrar'
p1179
aS'Kapasan'
p1180
aS'Nimbahera'
p1181
aS'Pratapgarh'
p1182
aS'Rashmi'
p1183
asS'Ajmer'
p1184
(lp1185
S'Kekri'
p1186
aS'Kishangarh'
p1187
aS'Nasirabad'
p1188
aS'Sarwar'
p1189
asS'Jhunjhunun'
p1190
(lp1191
S'Jhunjhunun'
p1192
aS'Khetri'
p1193
aS'Nawalgarh'
p1194
aS'Udaipurwati'
p1195
asS'Dhaulpur'
p1196
(lp1197
S'Baseri'
p1198
aS'Dhaulpur'
p1199
asS'Bikaner'
p1200
(lp1201
S'Kolayat'
p1202
aS'Lunkaransar'
p1203
aS'Nokha'
p1204
asS'Jhalawar'
p1205
(lp1206
S'Gangdhar'
p1207
aS'Jhalarapatan'
p1208
aS'Khanpur'
p1209
aS'Pachpahar'
p1210
aS'Pirawa'
p1211
asS'Jodhpur'
p1212
(lp1213
S'Bilara'
p1214
aS'Jodhpur'
p1215
aS'Osiyan'
p1216
aS'Phalodi'
p1217
aS'Shergarh'
p1218
asS'Churu'
p1219
(lp1220
S'Dungargarh'
p1221
aS'Rajgarh'
p1222
aS'Ratangarh'
p1223
aS'Sardarshahar'
p1224
aS'Sujangarh'
p1225
aS'Taranagar'
p1226
asS'Tonk'
p1227
(lp1228
S'Malpura'
p1229
aS'Niwai'
p1230
aS'Toda Raisingh'
p1231
aS'Tonk'
p1232
aS'Uniara'
p1233
asS'Hanumangarh'
p1234
(lp1235
S'Nohar'
p1236
aS'Pilibangan'
p1237
aS'Rawatsar'
p1238
aS'Sangariya'
p1239
aS'Tibi'
p1240
asS'Bharatpur'
p1241
(lp1242
S'Bharatpur'
p1243
aS'Dig'
p1244
aS'Kaman'
p1245
aS'Kumher'
p1246
aS'Nadbai'
p1247
aS'Nagar'
p1248
aS'Rupbas'
p1249
aS'Weir'
p1250
asS'Sawai Madhopur'
p1251
(lp1252
S'Bonali'
p1253
aS'Gangapur'
p1254
aS'Khandar'
p1255
aS'Sawai Madhopur'
p1256
assS'Sikkim'
p1257
(dp1258
sS'West Bengal'
p1259
(dp1260
S'East Midnapore'
p1261
(lp1262
S'Tamluk'
p1263
asS'Murshidabad'
p1264
(lp1265
S'Jangipur'
p1266
aS'Kandi'
p1267
aS'Murshidabad'
p1268
asS'Puruliya'
p1269
(lp1270
sS'Nadia'
p1271
(lp1272
S'Krishnanagar'
p1273
aS'Ranaghat'
p1274
asS'Hugli'
p1275
(lp1276
S'Chandannagar'
p1277
aS'Chunchura'
p1278
aS'Shrirampur'
p1279
asS'Kolkata'
p1280
(lp1281
sS'Uttar Dinajpur'
p1282
(lp1283
S'Raiganj'
p1284
asS'Bankura'
p1285
(lp1286
S'Bishnupur'
p1287
asS'Barddhaman'
p1288
(lp1289
S'Barddhaman'
p1290
aS'Durgapur'
p1291
aS'Kalna'
p1292
aS'Katoya'
p1293
asS'Kochbihar'
p1294
(lp1295
S'Kochbihar'
p1296
aS'Mathabhanga'
p1297
aS'Mekhliganj'
p1298
aS'Tufanganj'
p1299
asS'Birbhum'
p1300
(lp1301
S'Rampur Hat'
p1302
aS'Siuri'
p1303
asS'South 24 Parganas'
p1304
(lp1305
sS'West Midnapore'
p1306
(lp1307
S'Ghatal'
p1308
asS'North 24 Parganas'
p1309
(lp1310
S'Barakpur'
p1311
aS'Barasat'
p1312
aS'Basirhat'
p1313
asS'Jalpaiguri'
p1314
(lp1315
S'Jalpaiguri'
p1316
asS'Darjiling'
p1317
(lp1318
S'Kalimpong'
p1319
aS'Kurseong'
p1320
aS'Siliguri'
p1321
asS'Dakshin Dinajpur'
p1322
(lp1323
sS'Haora'
p1324
(lp1325
S'Uluberiya'
p1326
asS'Maldah'
p1327
(lp1328
ssS'Andhra Pradesh'
p1329
(dp1330
S'Vishakhapatnam'
p1331
(lp1332
S'Bhimunipatnam'
p1333
aS'Chintapalle'
p1334
aS'Chodavaram'
p1335
aS'Narsipatnam'
p1336
aS'Paderu'
p1337
aS'Vishakhapatnam'
p1338
aS'Yellamanchili'
p1339
asS'Warangal'
p1340
(lp1341
S'Jangaon'
p1342
aS'Mulug'
p1343
aS'Narsampet'
p1344
aS'Parkal'
p1345
asS'Khammam'
p1346
(lp1347
S'Borgampad'
p1348
aS'Khammam'
p1349
aS'Kottagudem'
p1350
aS'Madhira'
p1351
aS'Venkatapuram'
p1352
aS'Yellandu'
p1353
asS'Nalgonda'
p1354
(lp1355
S'Devarkonda'
p1356
aS'Huzurnagar'
p1357
aS'Mirialguda'
p1358
aS'Nalgonda'
p1359
aS'Ramannapet'
p1360
aS'Suriapet'
p1361
asS'Prakasam'
p1362
(lp1363
S'Chirala'
p1364
aS'Darsi'
p1365
aS'Giddalur'
p1366
aS'Kandukur'
p1367
aS'Kanigiri'
p1368
aS'Markapur'
p1369
aS'Ongole'
p1370
aS'Podili'
p1371
asS'West Godavari'
p1372
(lp1373
S'Chintalapudi'
p1374
aS'Eluru'
p1375
aS'Kovvur'
p1376
aS'Narsapur'
p1377
aS'Polavaram'
p1378
aS'Tadepallegudem'
p1379
aS'Tanuku'
p1380
asS'Cuddapah'
p1381
(lp1382
S'Cuddapah'
p1383
aS'Jammalamadugu'
p1384
aS'Kamalapuram'
p1385
aS'Proddatur'
p1386
aS'Pulivendla'
p1387
aS'Rajampet'
p1388
aS'Rayachoti'
p1389
aS'Sidhout'
p1390
asS'East Godavari'
p1391
(lp1392
S'Amalapuram'
p1393
aS'Kakinada'
p1394
aS'Kottapeta'
p1395
aS'Mummidivaram'
p1396
aS'Peddapuram'
p1397
aS'Pithapuram'
p1398
aS'Prathipadu'
p1399
aS'Rajahmundry'
p1400
aS'Ramachandrapuram'
p1401
aS'Rampa Chodavaram'
p1402
aS'Razole'
p1403
aS'Tuni'
p1404
asS'Adilabad'
p1405
(lp1406
S'Boath'
p1407
aS'Chinnur'
p1408
aS'Khanapur'
p1409
aS'Laxettipet'
p1410
aS'Mudhol'
p1411
aS'Nirmal'
p1412
aS'Sirpur'
p1413
aS'Utnur'
p1414
asS'Rangareddi'
p1415
(lp1416
S'Ibrahimpatan'
p1417
aS'Medchal'
p1418
aS'Pargi'
p1419
aS'Tandur'
p1420
aS'Vikarabad'
p1421
asS'Kurnool'
p1422
(lp1423
S'Allagadda'
p1424
aS'Alur'
p1425
aS'Atmakur'
p1426
aS'Banganapalli'
p1427
aS'Dhone'
p1428
aS'Koilkuntla'
p1429
aS'Kurnool'
p1430
aS'Nandikotkur'
p1431
aS'Nandyal'
p1432
aS'Pattikonda'
p1433
asS'Medak'
p1434
(lp1435
S'Jogipet'
p1436
aS'Medak'
p1437
aS'Narayankher'
p1438
aS'Narsapur'
p1439
aS'Sangareddi'
p1440
aS'Siddipet'
p1441
aS'Zahirabad'
p1442
asS'Anantapur'
p1443
(lp1444
S'Dharmavaram'
p1445
aS'Gooty'
p1446
aS'Hindupur'
p1447
aS'Kadiri'
p1448
aS'Kalyandurg'
p1449
aS'Madakasira'
p1450
aS'Penukonda'
p1451
aS'Rayadurg'
p1452
aS'Tadpatri'
p1453
asS'Krishna'
p1454
(lp1455
S'Gannavaram'
p1456
aS'Gudivada'
p1457
aS'Jaggayyapeta'
p1458
aS'Kaikalur'
p1459
aS'Machilipatnam'
p1460
aS'Nandigama'
p1461
aS'Nuzvid'
p1462
aS'Tiruvuru'
p1463
aS'Vijayawada'
p1464
asS'Chittoor'
p1465
(lp1466
S'Chittoor'
p1467
aS'Kuppam'
p1468
aS'Madanapalle'
p1469
aS'Palmaner'
p1470
aS'Punganuru'
p1471
aS'Puttur'
p1472
aS'Satyavedu'
p1473
aS'Sri Kalahasti'
p1474
aS'Vayalipad'
p1475
asS'Karimnagar'
p1476
(lp1477
S'Jagtial'
p1478
aS'Karimnagar'
p1479
aS'Manthani'
p1480
aS'Metpalli'
p1481
aS'Sirsilla'
p1482
aS'Sultanabad'
p1483
asS'Guntur'
p1484
(lp1485
S'Guntur'
p1486
aS'Guruzala'
p1487
aS'Narasaraopet'
p1488
aS'Repalle'
p1489
aS'Sattenapalle'
p1490
aS'Tenali'
p1491
aS'Vinukonda'
p1492
asS'Srikakulam'
p1493
(lp1494
S'Ichchapuram'
p1495
aS'Narsannapeta'
p1496
aS'Palakonda'
p1497
aS'Pathapatnam'
p1498
aS'Sompeta'
p1499
aS'Srikakulam'
p1500
aS'Tekkali'
p1501
asS'Nellore'
p1502
(lp1503
S'Gudur'
p1504
aS'Kavali'
p1505
aS'Kovvur'
p1506
aS'Nellore'
p1507
aS'Rapur'
p1508
aS'Suluru'
p1509
aS'Udayagiri'
p1510
aS'Venkatagiri'
p1511
asS'Hyderabad'
p1512
(lp1513
sS'Nizamabad'
p1514
(lp1515
S'Banswada'
p1516
aS'Bodhan'
p1517
aS'Kamareddy'
p1518
aS'Madnur'
p1519
aS'Nizamabad'
p1520
aS'Yellareddi'
p1521
asS'Vizianagaram'
p1522
(lp1523
S'Gajapatinagaram'
p1524
aS'Parvathipuram'
p1525
aS'Puspatirega'
p1526
aS'Salur'
p1527
aS'Srungavarapukota'
p1528
aS'Vizianagaram'
p1529
asS'Mahbubnagar'
p1530
(lp1531
S'Alampur'
p1532
aS'Atamkur'
p1533
aS'Farooq Nagar'
p1534
aS'Gadwal'
p1535
aS'Kalwakurti'
p1536
aS'Kolhapur'
p1537
aS'Korangal'
p1538
aS'Mahbubnagar'
p1539
aS'Makhtal'
p1540
aS'Nagar Karnul'
p1541
aS'Wanparthy'
p1542
assS'Himachal Pradesh'
p1543
(dp1544
S'Hamirpur'
p1545
(lp1546
S'Bhoranj'
p1547
aS'Hamirpur'
p1548
aS'Nadaun'
p1549
asS'Kullu'
p1550
(lp1551
S'Banjar'
p1552
aS'Kullu'
p1553
aS'Nermand'
p1554
asS'Shimla'
p1555
(lp1556
S'Jubbal'
p1557
aS'Kotkhai'
p1558
aS'Kumharsain'
p1559
aS'Rampur'
p1560
aS'Rohru'
p1561
aS'Shimla'
p1562
aS'Suni'
p1563
aS'Theog'
p1564
asS'Sirmaur'
p1565
(lp1566
S'Pachhad'
p1567
aS'Paonta'
p1568
aS'Rajgarh'
p1569
aS'Renuka'
p1570
aS'Shilla'
p1571
asS'Chamba'
p1572
(lp1573
S'Chamba'
p1574
aS'Chaurah'
p1575
aS'Dalhousie'
p1576
aS'Pangi'
p1577
aS'Saluni'
p1578
asS'Lahul and Spiti'
p1579
(lp1580
S'Spiti'
p1581
asS'Una'
p1582
(lp1583
S'Una'
p1584
asS'Bilaspur'
p1585
(lp1586
S'Ghumarwin'
p1587
asS'Kangra'
p1588
(lp1589
S'Dharmshala'
p1590
aS'Indora'
p1591
aS'Jaisinghpur'
p1592
aS'Jawali'
p1593
aS'Kangra'
p1594
aS'Nurpur'
p1595
aS'Palampur'
p1596
aS'Baijnath'
p1597
asS'Kinnaur'
p1598
(lp1599
S'Morang'
p1600
aS'Nichar'
p1601
aS'Puh'
p1602
aS'Sangla'
p1603
asS'Mandi'
p1604
(lp1605
S'Jogindarnagar'
p1606
aS'Karsog'
p1607
aS'Mandi'
p1608
aS'Sarkaghat'
p1609
aS'Sundarnagar'
p1610
aS'Thunag'
p1611
asS'Solan'
p1612
(lp1613
S'Kandaghat'
p1614
aS'Kasauli'
p1615
aS'Nalagarh'
p1616
aS'Solan'
p1617
assS'Nagaland'
p1618
(dp1619
S'Wokha'
p1620
(lp1621
sS'Kohima'
p1622
(lp1623
sS'Phek'
p1624
(lp1625
sS'Tuensang'
p1626
(lp1627
sS'Mon'
p1628
(lp1629
sS'Zunheboto'
p1630
(lp1631
sS'Mokokchung'
p1632
(lp1633
ssS'Gujarat'
p1634
(dp1635
S'Bhavnagar'
p1636
(lp1637
S'Botad'
p1638
aS'Gadhada'
p1639
aS'Gariyadhar'
p1640
aS'Ghogha'
p1641
aS'Mahuva'
p1642
aS'Palitana'
p1643
aS'Sihor'
p1644
aS'Talaja'
p1645
aS'Umrala'
p1646
aS'Valabhipur'
p1647
asS'Vadodara'
p1648
(lp1649
S'Dabhoi'
p1650
aS'Jetpur Pavi'
p1651
aS'Karjan'
p1652
aS'Naswadi'
p1653
aS'Padra'
p1654
aS'Sankheda'
p1655
aS'Savli'
p1656
aS'Sinor'
p1657
aS'Tilakwada'
p1658
aS'Vadodara'
p1659
aS'Waghoriya'
p1660
asS'Panch Mahals'
p1661
(lp1662
S'Halol'
p1663
aS'Jambughoda'
p1664
aS'Kalol'
p1665
aS'Lunavada'
p1666
aS'Shehera'
p1667
asS'Jamnagar'
p1668
(lp1669
S'Dhrol'
p1670
aS'Dwarka'
p1671
aS'Jam Jodhpur'
p1672
aS'Jamnagar'
p1673
aS'Jodiya'
p1674
aS'Kalavad'
p1675
aS'Kalyanpur'
p1676
aS'Khambhaliya'
p1677
aS'Lalpur'
p1678
asS'Junagadh'
p1679
(lp1680
S'Junagadh'
p1681
aS'Keshod'
p1682
aS'Maliya'
p1683
aS'Manavadar'
p1684
aS'Mangrol'
p1685
aS'Mendarda'
p1686
aS'Talala'
p1687
aS'Una'
p1688
aS'Vanthli'
p1689
aS'Veraval'
p1690
aS'Visavadar'
p1691
asS'The Dangs'
p1692
(lp1693
sS'Navsari'
p1694
(lp1695
S'Gandevi'
p1696
aS'Navsari'
p1697
aS'Vansada'
p1698
asS'Rajkot'
p1699
(lp1700
S'Gondal'
p1701
aS'Jam Kandorna'
p1702
aS'Jasdan'
p1703
aS'Jetpur'
p1704
aS'Kotda Sangani'
p1705
aS'Lodhi ka Mahal'
p1706
aS'Maliya Miyana'
p1707
aS'Morbi'
p1708
aS'Padadhari'
p1709
aS'Rajkot'
p1710
aS'Upleta'
p1711
aS'Wankaner'
p1712
asS'Sabar Kantha'
p1713
(lp1714
S'Bhiloda'
p1715
aS'Himatnagar'
p1716
aS'Idar'
p1717
aS'Khed Brahma'
p1718
aS'Meghraj'
p1719
aS'Modasa'
p1720
aS'Prantij'
p1721
aS'Vijayanagar'
p1722
asS'Dahod'
p1723
(lp1724
S'Devgadh Bariya'
p1725
aS'Jhalod'
p1726
aS'Limkheda'
p1727
aS'Santrampur'
p1728
asS'Banas Kantha'
p1729
(lp1730
S'Dhanera'
p1731
aS'Disa'
p1732
aS'Diyodar'
p1733
aS'Kankrej'
p1734
aS'Palanpur'
p1735
aS'Tharad'
p1736
aS'Vadgam'
p1737
aS'Vav'
p1738
asS'Porbandar'
p1739
(lp1740
S'Porbandar'
p1741
aS'Ranavav'
p1742
asS'Kachchh'
p1743
(lp1744
S'Bhachau'
p1745
aS'Bhuj'
p1746
aS'Lakhpat'
p1747
aS'Mandvi'
p1748
aS'Mundra'
p1749
aS'Nakhtarana'
p1750
aS'Naliya'
p1751
aS'Rapar'
p1752
asS'Ahmadabad'
p1753
(lp1754
S'Dhandhuka'
p1755
aS'Dholka'
p1756
aS'Sanand'
p1757
aS'Viramgam'
p1758
asS'Kheda'
p1759
(lp1760
S'Mahemdavad'
p1761
aS'Matar'
p1762
aS'Nadiad'
p1763
aS'Thasra'
p1764
aS'Vadasinor'
p1765
asS'Narmada'
p1766
(lp1767
S'Rajpipla'
p1768
aS'Sagbara'
p1769
asS'Amreli'
p1770
(lp1771
S'Babra'
p1772
aS'Dhari'
p1773
aS'Jafarabad'
p1774
aS'Khambha'
p1775
aS'Kundla'
p1776
aS'Lathi'
p1777
aS'Lilia'
p1778
aS'Rajula'
p1779
aS'Vadia'
p1780
asS'Surat'
p1781
(lp1782
S'Nijhar'
p1783
aS'Olpad'
p1784
aS'Palsana'
p1785
aS'Songadh'
p1786
aS'Uchchhal'
p1787
aS'Valod'
p1788
aS'Vyara'
p1789
aS'Bardoli'
p1790
aS'Chorasi'
p1791
aS'Kamrej'
p1792
aS'Mahuva'
p1793
asS'Bharuch'
p1794
(lp1795
S'Ankleshwar'
p1796
aS'Bharuch'
p1797
aS'Hansot Mahal'
p1798
aS'Jambusar'
p1799
aS'Jhagadia'
p1800
aS'Vagra'
p1801
aS'Valia'
p1802
asS'Valsad'
p1803
(lp1804
S'Pardi'
p1805
aS'Umargam'
p1806
aS'Valsad'
p1807
asS'Surendranagar'
p1808
(lp1809
S'Dasada'
p1810
aS'Dhrangadhra'
p1811
aS'Halvad'
p1812
aS'Lakhtar'
p1813
aS'Limbdi'
p1814
aS'Muli'
p1815
aS'Sayla'
p1816
aS'Wadhwan'
p1817
asS'Mahesana'
p1818
(lp1819
S'Kadi'
p1820
aS'Kheralu'
p1821
aS'Mahesana'
p1822
aS'Vijapur'
p1823
aS'Visnagar'
p1824
asS'Anand'
p1825
(lp1826
S'Borsad'
p1827
aS'Khambhat'
p1828
aS'Petlad'
p1829
asS'Patan'
p1830
(lp1831
S'Patan'
p1832
aS'Radhanpur'
p1833
aS'Sami'
p1834
aS'Santalpur'
p1835
aS'Siddhapur'
p1836
asS'Gandhinagar'
p1837
(lp1838
S'Gandhinagar'
p1839
aS'Kalol'
p1840
assS'Arunachal Pradesh'
p1841
(dp1842
S'East Siang'
p1843
(lp1844
sS'Papum Pare'
p1845
(lp1846
sS'Tawang'
p1847
(lp1848
sS'Lohit'
p1849
(lp1850
sS'Lower Subansiri'
p1851
(lp1852
sS'Upper Subansiri'
p1853
(lp1854
sS'Tirap'
p1855
(lp1856
sS'Upper Siang'
p1857
(lp1858
sS'Lower Dibang Valley'
p1859
(lp1860
sS'Kurung Kumey'
p1861
(lp1862
sS'West Siang'
p1863
(lp1864
sS'West Kameng'
p1865
(lp1866
sS'Upper Dibang Valley'
p1867
(lp1868
ssS'Maharashtra'
p1869
(dp1870
S'Satara'
p1871
(lp1872
S'Karad'
p1873
aS'Koregaon'
p1874
aS'Mahabaleshwar'
p1875
aS'Medha'
p1876
aS'Patan'
p1877
aS'Phaltan'
p1878
aS'Satara'
p1879
aS'Shirwal'
p1880
aS'Vaduj'
p1881
aS'Wai'
p1882
asS'Gondiya'
p1883
(lp1884
S'Deori'
p1885
aS'Gondia'
p1886
aS'Goregaon'
p1887
aS'Tirora'
p1888
asS'Sindhudurg'
p1889
(lp1890
S'Kankauli'
p1891
aS'Kudal'
p1892
aS'Malvan'
p1893
aS'Savantvadi'
p1894
aS'Vaibhavwadi'
p1895
aS'Vengurla'
p1896
asS'Washim'
p1897
(lp1898
S'Malegaon'
p1899
aS'Mangrul Pir'
p1900
aS'Manora'
p1901
aS'Risod'
p1902
aS'Washim'
p1903
asS'Thane'
p1904
(lp1905
S'Dahanu'
p1906
aS'Jawhar'
p1907
aS'Kalyan'
p1908
aS'Mokhada'
p1909
aS'Murbad'
p1910
aS'Palghar'
p1911
aS'Shahapur'
p1912
aS'Talasri'
p1913
aS'Ulhasnagar'
p1914
aS'Vada'
p1915
aS'Vasai'
p1916
asS'Raigarh'
p1917
(lp1918
S'Khalapur'
p1919
aS'Mahad'
p1920
aS'Mangaon'
p1921
aS'Mhasla'
p1922
aS'Pali'
p1923
aS'Pen'
p1924
aS'Poladpur'
p1925
aS'Roha'
p1926
asS'Greater Bombay'
p1927
(lp1928
S'Thane'
p1929
asS'Dhule'
p1930
(lp1931
S'Sakri'
p1932
aS'Shirpur'
p1933
aS'Sindkheda'
p1934
asS'Bid'
p1935
(lp1936
S'Ashti'
p1937
aS'Bid'
p1938
aS'Gevrai'
p1939
aS'Jamkhed'
p1940
aS'Kaij'
p1941
aS'Majalgaon'
p1942
aS'Patoda'
p1943
asS'Solapur'
p1944
(lp1945
S'Barsi'
p1946
aS'Karmal'
p1947
aS'Madha'
p1948
aS'Malsiras'
p1949
aS'Mangalwedha'
p1950
aS'Mohol'
p1951
aS'Pandharpur'
p1952
aS'Sangole'
p1953
aS'Solapur'
p1954
asS'Chandrapur'
p1955
(lp1956
S'Bramhapuri'
p1957
aS'Chandrapur'
p1958
aS'Chimur'
p1959
aS'Gond Pipri'
p1960
aS'Mul'
p1961
aS'Nagbhir'
p1962
aS'Rajura'
p1963
aS'Sindewahi'
p1964
aS'Warora'
p1965
asS'Amravati'
p1966
(lp1967
S'Amravati'
p1968
aS'Anjangaon'
p1969
aS'Bhatkuli Jain'
p1970
aS'Chandur Bazar'
p1971
aS'Chandur'
p1972
aS'Chikhaldara'
p1973
aS'Daryapur'
p1974
aS'Dharni'
p1975
aS'Morshi'
p1976
aS'Nandgaon Khandeshwar'
p1977
aS'Tivsa'
p1978
aS'Warud'
p1979
asS'Aurangabad'
p1980
(lp1981
S'Gangapur'
p1982
aS'Kannad'
p1983
aS'Khuldabad'
p1984
aS'Paithan'
p1985
aS'Sillod'
p1986
aS'Soygaon'
p1987
aS'Vaijapur'
p1988
asS'Hingoli'
p1989
(lp1990
S'Hingoli'
p1991
aS'Kalamnuri'
p1992
asS'Ratnagiri'
p1993
(lp1994
S'Dapoli'
p1995
aS'Devrukh'
p1996
aS'Guhagar'
p1997
aS'Khed'
p1998
aS'Lanja'
p1999
aS'Mandangarh'
p2000
aS'Rajapur'
p2001
aS'Ratnagiri'
p2002
asS'Jalgaon'
p2003
(lp2004
S'Bhadgaon'
p2005
aS'Bhusawal'
p2006
aS'Chalisgaon'
p2007
aS'Chopda'
p2008
aS'Edalabad'
p2009
aS'Erandol'
p2010
aS'Jalgaon'
p2011
aS'Jamner'
p2012
aS'Pachora'
p2013
aS'Parola'
p2014
aS'Raver'
p2015
aS'Yaval'
p2016
asS'Pune'
p2017
(lp2018
S'Bhor'
p2019
aS'Daund'
p2020
aS'Ghod'
p2021
aS'Indapur'
p2022
aS'Junnar'
p2023
aS'Paud'
p2024
aS'Rajgurunagar'
p2025
aS'Sasvad'
p2026
aS'Shirur'
p2027
aS'Wadgaon'
p2028
asS'Nandurbar'
p2029
(lp2030
S'Dhadgaon'
p2031
aS'Nandurbar'
p2032
aS'Navapur'
p2033
aS'Shahada'
p2034
aS'Taloda'
p2035
asS'Nagpur'
p2036
(lp2037
S'Hingana'
p2038
aS'Kalmeshwar'
p2039
aS'Kamthi'
p2040
aS'Katol'
p2041
aS'Kuhi'
p2042
aS'Mauda'
p2043
aS'Nagpur'
p2044
aS'Narkher'
p2045
aS'Parsivni'
p2046
aS'Ramtek'
p2047
aS'Savner'
p2048
aS'Umred'
p2049
asS'Garhchiroli'
p2050
(lp2051
S'Armori'
p2052
aS'Chamursi'
p2053
aS'Dhanora'
p2054
aS'Garhchiroli'
p2055
aS'Itapalli'
p2056
aS'Kurkheda'
p2057
aS'Sironcha'
p2058
asS'Ahmednagar'
p2059
(lp2060
S'Karjat'
p2061
aS'Kopargaon'
p2062
aS'Nevasa'
p2063
aS'Parner'
p2064
aS'Pathardi'
p2065
aS'Rahuri'
p2066
aS'Sangamner'
p2067
aS'Shevgaon'
p2068
aS'Shrigonda'
p2069
aS'Shrirampur'
p2070
asS'Sangli'
p2071
(lp2072
S'Islampur'
p2073
aS'Jath'
p2074
aS'Kavathe Mahankal'
p2075
aS'Sangli'
p2076
aS'Shirala'
p2077
aS'Tasgaon'
p2078
aS'Vite'
p2079
asS'Nanded'
p2080
(lp2081
S'Biloli'
p2082
aS'Diglur'
p2083
aS'Hadgaon'
p2084
aS'Kandahar'
p2085
aS'Kinwat'
p2086
aS'Mukher'
p2087
aS'Nanded'
p2088
asS'Kolhapur'
p2089
(lp2090
S'Bavda'
p2091
aS'Chandgad'
p2092
aS'Gadhinglaj'
p2093
aS'Gargoti'
p2094
aS'Hatkalangda'
p2095
aS'Kagal'
p2096
aS'Kolhapur'
p2097
aS'Panhala'
p2098
aS'Radhanagari'
p2099
aS'Shahuwadi'
p2100
aS'Shirol'
p2101
asS'Bhandara'
p2102
(lp2103
S'Bhandara'
p2104
aS'Lakhandur'
p2105
aS'Mohari'
p2106
aS'Pawni'
p2107
aS'Sakoli'
p2108
aS'Salekasa'
p2109
aS'Tumsar'
p2110
asS'Akola'
p2111
(lp2112
S'Akot'
p2113
aS'Barsi Takli'
p2114
aS'Murtajapur'
p2115
aS'Patur'
p2116
aS'Telhara'
p2117
asS'Osmanabad'
p2118
(lp2119
S'Kallam'
p2120
aS'Osmanabad'
p2121
aS'Parenda'
p2122
aS'Tuljapur'
p2123
aS'Umarga'
p2124
asS'Wardha'
p2125
(lp2126
S'Ashti'
p2127
aS'Deoli'
p2128
aS'Hinganghat'
p2129
aS'Karanja'
p2130
aS'Samudrapur'
p2131
aS'Selu'
p2132
aS'Wardha'
p2133
asS'Parbhani'
p2134
(lp2135
S'Jintur'
p2136
aS'Parbhani'
p2137
aS'Pathri'
p2138
asS'Jalna'
p2139
(lp2140
S'Bhokardan'
p2141
aS'Jalna'
p2142
aS'Partur'
p2143
asS'Nashik'
p2144
(lp2145
S'Dindori'
p2146
aS'Igatpuri'
p2147
aS'Kalvan'
p2148
aS'Malegaon'
p2149
aS'Nandgaon'
p2150
aS'Nashik'
p2151
aS'Niphad'
p2152
aS'Peint'
p2153
aS'Satana'
p2154
aS'Sinnar'
p2155
aS'Surgana'
p2156
aS'Yeola'
p2157
asS'Yavatmal'
p2158
(lp2159
S'Darwha'
p2160
aS'Digras'
p2161
aS'Ghatanji'
p2162
aS'Kalam'
p2163
aS'Mahagaon'
p2164
aS'Maregaon'
p2165
aS'Ner'
p2166
aS'Pandharkawada'
p2167
aS'Pusad'
p2168
aS'Ralegaon'
p2169
aS'Umarkhed'
p2170
aS'Wani'
p2171
aS'Yavatmal'
p2172
asS'Latur'
p2173
(lp2174
S'Ausa'
p2175
aS'Latur'
p2176
aS'Nilanga'
p2177
aS'Udgir'
p2178
asS'Buldana'
p2179
(lp2180
S'Jalgaon'
p2181
aS'Lonar'
p2182
aS'Malkapur'
p2183
aS'Nandura'
p2184
aS'Sangrampur'
p2185
aS'Sindkhed Raja'
p2186
assS'Tripura'
p2187
(dp2188
S'West Tripura'
p2189
(lp2190
S'Khowai'
p2191
aS'Sonamura'
p2192
asS'South Tripura'
p2193
(lp2194
S'Belonia'
p2195
aS'Sabrum'
p2196
aS'Udaipur'
p2197
asS'North Tripura'
p2198
(lp2199
sS'Dhalai'
p2200
(lp2201
ssS'Puducherry'
p2202
(dp2203
S'Puducherry'
p2204
(lp2205
sS'Yanam'
p2206
(lp2207
sS'Mahe'
p2208
(lp2209
ssS'Karnataka'
p2210
(dp2211
S'Chikmagalur'
p2212
(lp2213
S'Kadur'
p2214
aS'Koppa'
p2215
aS'Mudigere'
p2216
aS'Narasimharajapura'
p2217
aS'Sringeri'
p2218
aS'Tarikere'
p2219
asS'Mysore'
p2220
(lp2221
S'Hunsur'
p2222
aS'Krishnarajanagara'
p2223
aS'Mysore'
p2224
aS'Nanjangud'
p2225
aS'Piriyapatna'
p2226
aS'Tirumakudal Narsipur'
p2227
asS'Bangalore Urban'
p2228
(lp2229
S'Bangalore'
p2230
asS'Chamrajnagar'
p2231
(lp2232
S'Gundlupet'
p2233
aS'Kollegal'
p2234
aS'Yelandur'
p2235
asS'Haveri'
p2236
(lp2237
S'Hangal'
p2238
aS'Haveri'
p2239
aS'Hirekerur'
p2240
aS'Ranibennur'
p2241
aS'Savanur'
p2242
aS'Shiggaon'
p2243
asS'Shimoga'
p2244
(lp2245
S'Sagar'
p2246
aS'Shikarpur'
p2247
aS'Shimoga'
p2248
aS'Sorab'
p2249
aS'Tirthalli'
p2250
asS'Bagalkot'
p2251
(lp2252
S'Bilgi'
p2253
aS'Hungund'
p2254
aS'Jamkhandi'
p2255
aS'Mudhol'
p2256
asS'Bangalore Rural'
p2257
(lp2258
S'Devanhalli'
p2259
aS'Dod Ballapur'
p2260
aS'Hoskote'
p2261
aS'Kanakapura'
p2262
aS'Magadi'
p2263
aS'Nelamangala'
p2264
aS'Ramanagaram'
p2265
asS'Uttar Kannand'
p2266
(lp2267
S'Bhatkal'
p2268
aS'Haliyal'
p2269
aS'Honavar'
p2270
aS'Karwar'
p2271
aS'Kumta'
p2272
aS'Mundgod'
p2273
aS'Siddapur'
p2274
aS'Sirsi'
p2275
aS'Supa'
p2276
aS'Yellapur'
p2277
asS'Chitradurga'
p2278
(lp2279
S'Chitradurga'
p2280
aS'Hiriyur'
p2281
aS'Holalkere'
p2282
aS'Hosdurga'
p2283
aS'Molakalmuru'
p2284
asS'Udupi'
p2285
(lp2286
S'Kundapura'
p2287
aS'Udupi'
p2288
asS'Dakshin Kannad'
p2289
(lp2290
S'Beltangadi'
p2291
aS'Mangalore'
p2292
aS'Puttur'
p2293
aS'Sulya'
p2294
asS'Koppal'
p2295
(lp2296
S'Koppal'
p2297
aS'Kushtagi'
p2298
aS'Yelbarga'
p2299
asS'Mandya'
p2300
(lp2301
S'Maddur'
p2302
aS'Malavalli'
p2303
aS'Mandya'
p2304
aS'Nagamangala'
p2305
aS'Pandavapura'
p2306
aS'Shrirangapattana'
p2307
asS'Tumkur'
p2308
(lp2309
S'Gubbi'
p2310
aS'Koratagere'
p2311
aS'Kunigal'
p2312
aS'Madhugiri'
p2313
aS'Pavagada'
p2314
aS'Sira'
p2315
aS'Tiptur'
p2316
aS'Tumkur'
p2317
aS'Turuvekere'
p2318
asS'Bellary'
p2319
(lp2320
S'Hagaribommanahalli'
p2321
aS'Hospet'
p2322
aS'Huvvinahadagalli'
p2323
aS'Kudligi'
p2324
aS'Sandur'
p2325
aS'Siruguppa'
p2326
asS'Bijapur'
p2327
(lp2328
S'Bijapur'
p2329
aS'Indi'
p2330
aS'Muddebihal'
p2331
aS'Sindgi'
p2332
asS'Kodagu'
p2333
(lp2334
S'Somvarpet'
p2335
aS'Virarajendrapet'
p2336
asS'Dharwad'
p2337
(lp2338
S'Hubli'
p2339
aS'Kalghatgi'
p2340
aS'Kundgol'
p2341
aS'Navalgund'
p2342
asS'Belgaum'
p2343
(lp2344
S'Bail Hongal'
p2345
aS'Belgaum'
p2346
aS'Chikodi'
p2347
aS'Gokak'
p2348
aS'Hukeri'
p2349
aS'Khanapur'
p2350
aS'Ramdurg'
p2351
aS'Raybag'
p2352
aS'Saundatti'
p2353
asS'Bidar'
p2354
(lp2355
S'Basavakalyan'
p2356
aS'Bhalki'
p2357
aS'Bidar'
p2358
aS'Homnabad'
p2359
asS'Hassan'
p2360
(lp2361
S'Arkalgud'
p2362
aS'Arsikere'
p2363
aS'Belur'
p2364
aS'Channarayapatna'
p2365
aS'Hassan'
p2366
aS'Holenarsipur'
p2367
aS'Sakleshpur'
p2368
asS'Gulbarga'
p2369
(lp2370
S'Aland'
p2371
aS'Chincholi'
p2372
aS'Chitapur'
p2373
aS'Gulbarga'
p2374
aS'Jevargi'
p2375
aS'Seram'
p2376
aS'Shahpur'
p2377
aS'Shorapur'
p2378
aS'Yadgir'
p2379
asS'Davanagere'
p2380
(lp2381
S'Channagiri'
p2382
aS'Davangere'
p2383
aS'Harihar'
p2384
aS'Harpanahalli'
p2385
aS'Honnali'
p2386
aS'Jagalur'
p2387
asS'Kolar'
p2388
(lp2389
S'Bangarapet'
p2390
aS'Chik Ballapur'
p2391
aS'Chintamani'
p2392
aS'Gauribidanur'
p2393
aS'Gudibanda'
p2394
aS'Kolar'
p2395
aS'Malur'
p2396
aS'Mulbagal'
p2397
aS'Sidlaghatta'
p2398
aS'Srinivaspur'
p2399
asS'Raichur'
p2400
(lp2401
S'Lingsugur'
p2402
aS'Manvi'
p2403
aS'Raichur'
p2404
aS'Sindhnur'
p2405
asS'Gadag'
p2406
(lp2407
S'Mundargi'
p2408
aS'Nargund'
p2409
aS'Ron'
p2410
aS'Shirhatti'
p2411
assS'Uttaranchal'
p2412
(dp2413
S'Bageshwar'
p2414
(lp2415
sS'Pithoragarh'
p2416
(lp2417
S'Didihat'
p2418
aS'Munsyari'
p2419
aS'Pithoragarh'
p2420
asS'Uttarkashi'
p2421
(lp2422
S'Dunda'
p2423
aS'Purola'
p2424
aS'Rajgarhi'
p2425
asS'Haridwar'
p2426
(lp2427
S'Roorkee'
p2428
asS'Dehra Dun'
p2429
(lp2430
S'Dehra Dun'
p2431
asS'Rudra Prayag'
p2432
(lp2433
sS'Udham Singh Nagar'
p2434
(lp2435
S'Kashipur'
p2436
aS'Khatima'
p2437
aS'Kichha'
p2438
asS'Naini Tal'
p2439
(lp2440
S'Naini Tal'
p2441
asS'Almora'
p2442
(lp2443
sS'Champawat'
p2444
(lp2445
sS'Chamoli'
p2446
(lp2447
S'Joshimath'
p2448
aS'Karnaprayag'
p2449
asS'Pauri Garhwal'
p2450
(lp2451
S'Pauri'
p2452
asS'Tehri Garhwal'
p2453
(lp2454
S'Tehri'
p2455
assS'Mizoram'
p2456
(dp2457
S'Kolasib'
p2458
(lp2459
sS'Saiha'
p2460
(lp2461
sS'Mamit'
p2462
(lp2463
sS'Champhai'
p2464
(lp2465
sS'Lawngtlai'
p2466
(lp2467
S'Lawngtlai'
p2468
asS'Lunglei'
p2469
(lp2470
S'Tlabung'
p2471
asS'Serchhip'
p2472
(lp2473
ssS'Uttar Pradesh'
p2474
(dp2475
S'Firozabad'
p2476
(lp2477
S'Firozabad'
p2478
aS'Jasrana'
p2479
aS'Shikohabad'
p2480
asS'Farrukhabad'
p2481
(lp2482
S'Kaimganj'
p2483
asS'Muzaffarnagar'
p2484
(lp2485
S'Jansath'
p2486
aS'Kairana'
p2487
aS'Muzaffarnagar'
p2488
asS'Varanasi'
p2489
(lp2490
sS'Sant Kabir Nagar'
p2491
(lp2492
sS'Chitrakoot'
p2493
(lp2494
S'Mau'
p2495
asS'Mainpuri'
p2496
(lp2497
S'Karhal'
p2498
aS'Mainpuri'
p2499
asS'Baghpat'
p2500
(lp2501
sS'Chandauli'
p2502
(lp2503
S'Chandauli'
p2504
asS'Pilibhit'
p2505
(lp2506
S'Pilibhit'
p2507
aS'Puranpur'
p2508
asS'Jyotiba Phule Nagar'
p2509
(lp2510
S'Hasanpur'
p2511
asS'Mahoba'
p2512
(lp2513
S'Kulpahar'
p2514
aS'Mahoba'
p2515
asS'Bareilly'
p2516
(lp2517
S'Baheri'
p2518
aS'Bareilly'
p2519
aS'Faritpur'
p2520
aS'Nawabganj'
p2521
asS'Kannauj'
p2522
(lp2523
S'Kannauj'
p2524
asS'Etah'
p2525
(lp2526
S'Etah'
p2527
aS'Jalesar'
p2528
aS'Kasganj'
p2529
asS'Lakhimpur Kheri'
p2530
(lp2531
S'Muhamdi'
p2532
aS'Nighasan'
p2533
asS'Basti'
p2534
(lp2535
S'Haraiya'
p2536
asS'Faizabad'
p2537
(lp2538
S'Faizabad'
p2539
asS'Badaun'
p2540
(lp2541
S'Budaun'
p2542
aS'Dataganj'
p2543
aS'Gunnaur'
p2544
aS'Sahaswan'
p2545
asS'Mau'
p2546
(lp2547
S'Mau'
p2548
asS'Lucknow'
p2549
(lp2550
S'Malihabad'
p2551
aS'Mohanlalganj'
p2552
asS'Sitapur'
p2553
(lp2554
S'Misrikh'
p2555
aS'Sidhauli'
p2556
aS'Sitapur'
p2557
asS'Lalitpur'
p2558
(lp2559
S'Mahrauni'
p2560
asS'Pratapgarh'
p2561
(lp2562
S'Kunda'
p2563
aS'Patti'
p2564
asS'Mathura'
p2565
(lp2566
S'Mat'
p2567
aS'Mathura'
p2568
aS'Sadabad'
p2569
asS'Unnao'
p2570
(lp2571
S'Purwa'
p2572
aS'Safipur'
p2573
aS'Unnao'
p2574
asS'Rampur'
p2575
(lp2576
S'Milak'
p2577
aS'Rampur'
p2578
aS'Shahabad'
p2579
aS'Suar'
p2580
asS'Allahabad'
p2581
(lp2582
S'Karchana'
p2583
aS'Meja'
p2584
aS'Phulpur'
p2585
aS'Soraon'
p2586
asS'Hardoi'
p2587
(lp2588
S'Hardoi'
p2589
aS'Sandila'
p2590
aS'Shahabad'
p2591
asS'Bahraich'
p2592
(lp2593
S'Nanpara'
p2594
asS'Bara Banki'
p2595
(lp2596
S'Fatehpur'
p2597
aS'Haidargarh'
p2598
aS'Ramsanehighat'
p2599
asS'Banda'
p2600
(lp2601
S'Banda'
p2602
aS'Naraini'
p2603
asS'Shravasti'
p2604
(lp2605
sS'Sant Ravi Das Nagar'
p2606
(lp2607
sS'Sultanpur'
p2608
(lp2609
S'Gauriganj'
p2610
aS'Kadipur'
p2611
aS'Musafirkhana'
p2612
aS'Sultanpur'
p2613
asS'Mirzapur'
p2614
(lp2615
S'Mirzapur'
p2616
asS'Auraiya'
p2617
(lp2618
S'Bidhuna'
p2619
asS'Hathras'
p2620
(lp2621
sS'Siddharth Nagar'
p2622
(lp2623
S'Domriaganj'
p2624
aS'Naugarh'
p2625
asS'Gonda'
p2626
(lp2627
S'Tarabganj'
p2628
aS'Utraula'
p2629
asS'Azamgarh'
p2630
(lp2631
S'Katghar'
p2632
aS'Phulpur'
p2633
aS'Sagri'
p2634
asS'Meerut'
p2635
(lp2636
S'Meerut'
p2637
aS'Sardhana'
p2638
asS'Fatehpur'
p2639
(lp2640
S'Fatehpur'
p2641
aS'Khaga'
p2642
asS'Bijnor'
p2643
(lp2644
S'Dhampur'
p2645
aS'Nagina'
p2646
aS'Najibabad'
p2647
asS'Saharanpur'
p2648
(lp2649
S'Nakur'
p2650
aS'Saharanpur'
p2651
asS'Balrampur'
p2652
(lp2653
sS'Moradabad'
p2654
(lp2655
S'Moradabad'
p2656
aS'Sambhal'
p2657
aS'Thakurdwara'
p2658
asS'Rae Bareli'
p2659
(lp2660
S'Maharajganj'
p2661
aS'Rae Bareli'
p2662
aS'Salon'
p2663
asS'Kaushambi'
p2664
(lp2665
S'Manjhanpur'
p2666
aS'Sirathu'
p2667
asS'Sonbhadra'
p2668
(lp2669
S'Robertsganj'
p2670
asS'Kanpur Dehat'
p2671
(lp2672
S'Bilhaur'
p2673
aS'Derapur'
p2674
aS'Ghatampur'
p2675
aS'Pukhrayan'
p2676
asS'Maharajganj'
p2677
(lp2678
S'Pharenda'
p2679
asS'Hamirpur'
p2680
(lp2681
S'Maudaha'
p2682
aS'Rath'
p2683
asS'Jalaun'
p2684
(lp2685
S'Kalpi'
p2686
aS'Konch'
p2687
aS'Orai'
p2688
asS'Kushinagar'
p2689
(lp2690
S'Padrauna'
p2691
asS'Kanpur'
p2692
(lp2693
sS'Gorakhpur'
p2694
(lp2695
S'Gorakhpur'
p2696
asS'Ghaziabad'
p2697
(lp2698
S'Ghaziabad'
p2699
aS'Hapur'
p2700
asS'Gautam Buddha Nagar'
p2701
(lp2702
S'Khurja'
p2703
aS'Sikandarabad'
p2704
asS'Deoria'
p2705
(lp2706
S'Salempur'
p2707
asS'Shahjahanpur'
p2708
(lp2709
S'Pawayan'
p2710
aS'Shahjahanpur'
p2711
aS'Tilhar'
p2712
asS'Etawah'
p2713
(lp2714
S'Etawah'
p2715
asS'Ballia'
p2716
(lp2717
S'Bansdih'
p2718
aS'Rasra'
p2719
asS'Aligarh'
p2720
(lp2721
S'Atrauli'
p2722
aS'Iglas'
p2723
aS'Khair'
p2724
aS'Sikandra Rao'
p2725
asS'Ambedkar Nagar'
p2726
(lp2727
S'Tanda'
p2728
asS'Bulandshahr'
p2729
(lp2730
S'Bulandshahr'
p2731
asS'Jaunpur'
p2732
(lp2733
S'Kirakat'
p2734
aS'Machhlishahr'
p2735
aS'Mariahu'
p2736
aS'Shahganj'
p2737
asS'Jhansi'
p2738
(lp2739
S'Jhansi'
p2740
aS'Mau Ranipur'
p2741
aS'Moth'
p2742
asS'Ghazipur'
p2743
(lp2744
S'Muhammadabad'
p2745
aS'Saidpur'
p2746
aS'Zamania'
p2747
asS'Agra'
p2748
(lp2749
S'Fatehabad'
p2750
aS'Khairagarh'
p2751
aS'Kiraoli'
p2752
ass.